target datalayout = "e-m:e-p270:32:32-p271:32:32-p272:64:64-i64:64-i128:128-f80:128-n8:16:32:64-S128"
target triple = "x86_64-pc-linux-gnu"

%"struct.faiss::ClusteringParameters" = type { i32, i32, i8, i8, i8, i8, i8, i32, i32, i32, i64 }
%"class.std::vector" = type { %"struct.std::_Vector_base" }
%"struct.std::_Vector_base" = type { %"struct.std::_Vector_base<float, std::allocator<float>>::_Vector_impl" }
%"struct.std::_Vector_base<float, std::allocator<float>>::_Vector_impl" = type { %"struct.std::_Vector_base<float, std::allocator<float>>::_Vector_impl_data" }
%"struct.std::_Vector_base<float, std::allocator<float>>::_Vector_impl_data" = type { ptr, ptr, ptr }
%"struct.faiss::ProductQuantizer" = type { %"struct.faiss::Quantizer", i64, i64, i64, i64, i8, i32, %"struct.faiss::ClusteringParameters", ptr, %"class.std::vector", %"class.std::vector", %"class.std::vector", %"class.std::vector" }
%"struct.faiss::Quantizer" = type { ptr, i64, i64 }
%"class.std::__cxx11::basic_string" = type { %"struct.std::__cxx11::basic_string<char>::_Alloc_hider", i64, %union.anon }
%"struct.std::__cxx11::basic_string<char>::_Alloc_hider" = type { ptr }
%union.anon = type { i64, [8 x i8] }

@.str = private unnamed_addr constant [108 x i8] c"Error: '%s' failed: The dimension of the vector (d) should be a multiple of the number of subquantizers (M)\00", align 1
@.str.1 = private unnamed_addr constant [11 x i8] c"d % M == 0\00", align 1
@__PRETTY_FUNCTION__._ZN5faiss16ProductQuantizer18set_derived_valuesEv = private unnamed_addr constant [51 x i8] c"void faiss::ProductQuantizer::set_derived_values()\00", align 1
@.str.2 = private unnamed_addr constant [121 x i8] c"generated/home/dtcxzyw/WorkSpace/Projects/compilers/llvm-opt-benchmark/bench/faiss/faiss/faiss/impl/ProductQuantizer.cpp\00", align 1
@_ZTIN5faiss14FaissExceptionE = external constant ptr

; Function Attrs: mustprogress nounwind uwtable
define linkonce_odr void @_ZNSt12_Destroy_auxILb1EE9__destroyIPfEEvT_S3_(ptr noundef %0, ptr noundef %1) #1 comdat align 2 {
  %3 = alloca ptr, align 8
  %4 = alloca ptr, align 8
  store ptr %0, ptr %3, align 8
  store ptr %1, ptr %4, align 8
  ret void
}

; Function Attrs: mustprogress uwtable
define linkonce_odr void @_ZSt8_DestroyIPfEvT_S1_(ptr noundef %0, ptr noundef %1) #0 comdat {
  %3 = alloca ptr, align 8
  %4 = alloca ptr, align 8
  store ptr %0, ptr %3, align 8
  store ptr %1, ptr %4, align 8
  %5 = load ptr, ptr %3, align 8
  %6 = load ptr, ptr %4, align 8
  call void @_ZNSt12_Destroy_auxILb1EE9__destroyIPfEEvT_S3_(ptr noundef %5, ptr noundef %6)
  ret void
}

; Function Attrs: noreturn nounwind uwtable
define linkonce_odr hidden void @__clang_call_terminate(ptr noundef %0) #3 comdat {
  %2 = call ptr @__cxa_begin_catch(ptr %0) #12
  call void @_ZSt9terminatev() #16
  unreachable
}

; Function Attrs: mustprogress uwtable
define linkonce_odr void @_ZSt8_DestroyIPffEvT_S1_RSaIT0_E(ptr noundef %0, ptr noundef %1, ptr noundef nonnull align 1 dereferenceable(1) %2) #0 comdat {
  %4 = alloca ptr, align 8
  %5 = alloca ptr, align 8
  %6 = alloca ptr, align 8
  store ptr %0, ptr %4, align 8
  store ptr %1, ptr %5, align 8
  store ptr %2, ptr %6, align 8
  %7 = load ptr, ptr %4, align 8
  %8 = load ptr, ptr %5, align 8
  call void @_ZSt8_DestroyIPfEvT_S1_(ptr noundef %7, ptr noundef %8)
  ret void
}

; Function Attrs: mustprogress nounwind uwtable
define linkonce_odr noundef nonnull align 1 dereferenceable(1) ptr @_ZNSt12_Vector_baseIfSaIfEE19_M_get_Tp_allocatorEv(ptr noundef nonnull align 8 dereferenceable(24) %0) #1 comdat align 2 {
  %2 = alloca ptr, align 8
  store ptr %0, ptr %2, align 8
  %3 = load ptr, ptr %2, align 8
  %4 = getelementptr inbounds %"struct.std::_Vector_base", ptr %3, i32 0, i32 0
  ret ptr %4
}

; Function Attrs: mustprogress nounwind uwtable
define linkonce_odr void @_ZNSt6vectorIfSaIfEE15_M_erase_at_endEPf(ptr noundef nonnull align 8 dereferenceable(24) %0, ptr noundef %1) #1 comdat align 2 personality ptr @__gxx_personality_v0 {
  %3 = alloca ptr, align 8
  %4 = alloca ptr, align 8
  %5 = alloca i64, align 8
  store ptr %0, ptr %3, align 8
  store ptr %1, ptr %4, align 8
  %6 = load ptr, ptr %3, align 8
  %7 = getelementptr inbounds %"struct.std::_Vector_base", ptr %6, i32 0, i32 0
  %8 = getelementptr inbounds %"struct.std::_Vector_base<float, std::allocator<float>>::_Vector_impl_data", ptr %7, i32 0, i32 1
  %9 = load ptr, ptr %8, align 8
  %10 = load ptr, ptr %4, align 8
  %11 = ptrtoint ptr %9 to i64
  %12 = ptrtoint ptr %10 to i64
  %13 = sub i64 %11, %12
  %14 = sdiv exact i64 %13, 4
  store i64 %14, ptr %5, align 8
  %15 = load i64, ptr %5, align 8
  %16 = icmp ne i64 %15, 0
  br i1 %16, label %17, label %27

17:                                               ; preds = %2
  %18 = load ptr, ptr %4, align 8
  %19 = getelementptr inbounds %"struct.std::_Vector_base", ptr %6, i32 0, i32 0
  %20 = getelementptr inbounds %"struct.std::_Vector_base<float, std::allocator<float>>::_Vector_impl_data", ptr %19, i32 0, i32 1
  %21 = load ptr, ptr %20, align 8
  %22 = call noundef nonnull align 1 dereferenceable(1) ptr @_ZNSt12_Vector_baseIfSaIfEE19_M_get_Tp_allocatorEv(ptr noundef nonnull align 8 dereferenceable(24) %6) #12
  invoke void @_ZSt8_DestroyIPffEvT_S1_RSaIT0_E(ptr noundef %18, ptr noundef %21, ptr noundef nonnull align 1 dereferenceable(1) %22)
          to label %23 unwind label %28

23:                                               ; preds = %17
  %24 = load ptr, ptr %4, align 8
  %25 = getelementptr inbounds %"struct.std::_Vector_base", ptr %6, i32 0, i32 0
  %26 = getelementptr inbounds %"struct.std::_Vector_base<float, std::allocator<float>>::_Vector_impl_data", ptr %25, i32 0, i32 1
  store ptr %24, ptr %26, align 8
  br label %27

27:                                               ; preds = %23, %2
  ret void

28:                                               ; preds = %17
  %29 = landingpad { ptr, i32 }
          catch ptr null
  %30 = extractvalue { ptr, i32 } %29, 0
  call void @__clang_call_terminate(ptr %30) #16
  unreachable
}

; Function Attrs: mustprogress nounwind uwtable
define linkonce_odr noundef i64 @_ZNKSt6vectorIfSaIfEE4sizeEv(ptr noundef nonnull align 8 dereferenceable(24) %0) #1 comdat align 2 {
  %2 = alloca ptr, align 8
  store ptr %0, ptr %2, align 8
  %3 = load ptr, ptr %2, align 8
  %4 = getelementptr inbounds %"struct.std::_Vector_base", ptr %3, i32 0, i32 0
  %5 = getelementptr inbounds %"struct.std::_Vector_base<float, std::allocator<float>>::_Vector_impl_data", ptr %4, i32 0, i32 1
  %6 = load ptr, ptr %5, align 8
  %7 = getelementptr inbounds %"struct.std::_Vector_base", ptr %3, i32 0, i32 0
  %8 = getelementptr inbounds %"struct.std::_Vector_base<float, std::allocator<float>>::_Vector_impl_data", ptr %7, i32 0, i32 0
  %9 = load ptr, ptr %8, align 8
  %10 = ptrtoint ptr %6 to i64
  %11 = ptrtoint ptr %9 to i64
  %12 = sub i64 %10, %11
  %13 = sdiv exact i64 %12, 4
  ret i64 %13
}

; Function Attrs: mustprogress uwtable
define linkonce_odr void @_ZNSt6vectorIfSaIfEE6resizeEm(ptr noundef nonnull align 8 dereferenceable(24) %0, i64 noundef %1) #0 comdat align 2 {
  %3 = alloca ptr, align 8
  %4 = alloca i64, align 8
  store ptr %0, ptr %3, align 8
  store i64 %1, ptr %4, align 8
  %5 = load ptr, ptr %3, align 8
  %6 = load i64, ptr %4, align 8
  %7 = call noundef i64 @_ZNKSt6vectorIfSaIfEE4sizeEv(ptr noundef nonnull align 8 dereferenceable(24) %5) #12
  %8 = icmp ugt i64 %6, %7
  br i1 %8, label %9, label %13

9:                                                ; preds = %2
  %10 = load i64, ptr %4, align 8
  %11 = call noundef i64 @_ZNKSt6vectorIfSaIfEE4sizeEv(ptr noundef nonnull align 8 dereferenceable(24) %5) #12
  %12 = sub i64 %10, %11
  call void @_ZNSt6vectorIfSaIfEE17_M_default_appendEm(ptr noundef nonnull align 8 dereferenceable(24) %5, i64 noundef %12)
  br label %24

13:                                               ; preds = %2
  %14 = load i64, ptr %4, align 8
  %15 = call noundef i64 @_ZNKSt6vectorIfSaIfEE4sizeEv(ptr noundef nonnull align 8 dereferenceable(24) %5) #12
  %16 = icmp ult i64 %14, %15
  br i1 %16, label %17, label %23

17:                                               ; preds = %13
  %18 = getelementptr inbounds %"struct.std::_Vector_base", ptr %5, i32 0, i32 0
  %19 = getelementptr inbounds %"struct.std::_Vector_base<float, std::allocator<float>>::_Vector_impl_data", ptr %18, i32 0, i32 0
  %20 = load ptr, ptr %19, align 8
  %21 = load i64, ptr %4, align 8
  %22 = getelementptr inbounds float, ptr %20, i64 %21
  call void @_ZNSt6vectorIfSaIfEE15_M_erase_at_endEPf(ptr noundef nonnull align 8 dereferenceable(24) %5, ptr noundef %22) #12
  br label %23

23:                                               ; preds = %17, %13
  br label %24

24:                                               ; preds = %23, %9
  ret void
}

; Function Attrs: mustprogress uwtable
define void @_ZN5faiss16ProductQuantizer18set_derived_valuesEv(ptr noundef nonnull align 8 dereferenceable(208) %0) #0 align 2 personality ptr @__gxx_personality_v0 {
  %2 = alloca ptr, align 8
  %3 = alloca %"class.std::__cxx11::basic_string", align 8
  %4 = alloca i32, align 4
  %5 = alloca ptr, align 8
  %6 = alloca i32, align 4
  store ptr %0, ptr %2, align 8
  %7 = load ptr, ptr %2, align 8
  br label %8

8:                                                ; preds = %1
  %9 = getelementptr inbounds %"struct.faiss::Quantizer", ptr %7, i32 0, i32 1
  %10 = load i64, ptr %9, align 8
  %11 = getelementptr inbounds %"struct.faiss::ProductQuantizer", ptr %7, i32 0, i32 1
  %12 = load i64, ptr %11, align 8
  %13 = urem i64 %10, %12
  %14 = icmp eq i64 %13, 0
  br i1 %14, label %38, label %15

15:                                               ; preds = %8
  br label %16

16:                                               ; preds = %15
  call void @_ZNSt7__cxx1112basic_stringIcSt11char_traitsIcESaIcEEC1Ev(ptr noundef nonnull align 8 dereferenceable(32) %3) #12
  %17 = call i32 (ptr, i64, ptr, ...) @snprintf(ptr noundef null, i64 noundef 0, ptr noundef @.str, ptr noundef @.str.1) #12
  store i32 %17, ptr %4, align 4
  %18 = load i32, ptr %4, align 4
  %19 = add nsw i32 %18, 1
  %20 = sext i32 %19 to i64
  invoke void @_ZNSt7__cxx1112basic_stringIcSt11char_traitsIcESaIcEE6resizeEm(ptr noundef nonnull align 8 dereferenceable(32) %3, i64 noundef %20)
          to label %21 unwind label %28

21:                                               ; preds = %16
  %22 = invoke noundef nonnull align 1 dereferenceable(1) ptr @_ZNSt7__cxx1112basic_stringIcSt11char_traitsIcESaIcEEixEm(ptr noundef nonnull align 8 dereferenceable(32) %3, i64 noundef 0)
          to label %23 unwind label %28

23:                                               ; preds = %21
  %24 = call noundef i64 @_ZNKSt7__cxx1112basic_stringIcSt11char_traitsIcESaIcEE4sizeEv(ptr noundef nonnull align 8 dereferenceable(32) %3) #12
  %25 = call i32 (ptr, i64, ptr, ...) @snprintf(ptr noundef %22, i64 noundef %24, ptr noundef @.str, ptr noundef @.str.1) #12
  %26 = call ptr @__cxa_allocate_exception(i64 40) #12
  invoke void @_ZN5faiss14FaissExceptionC1ERKNSt7__cxx1112basic_stringIcSt11char_traitsIcESaIcEEEPKcSA_i(ptr noundef nonnull align 8 dereferenceable(40) %26, ptr noundef nonnull align 8 dereferenceable(32) %3, ptr noundef @__PRETTY_FUNCTION__._ZN5faiss16ProductQuantizer18set_derived_valuesEv, ptr noundef @.str.2, i32 noundef 61)
          to label %27 unwind label %32

27:                                               ; preds = %23
  invoke void @__cxa_throw(ptr %26, ptr @_ZTIN5faiss14FaissExceptionE, ptr @_ZN5faiss14FaissExceptionD2Ev) #15
          to label %73 unwind label %28

28:                                               ; preds = %27, %21, %16
  %29 = landingpad { ptr, i32 }
          cleanup
  %30 = extractvalue { ptr, i32 } %29, 0
  store ptr %30, ptr %5, align 8
  %31 = extractvalue { ptr, i32 } %29, 1
  store i32 %31, ptr %6, align 4
  br label %36

32:                                               ; preds = %23
  %33 = landingpad { ptr, i32 }
          cleanup
  %34 = extractvalue { ptr, i32 } %33, 0
  store ptr %34, ptr %5, align 8
  %35 = extractvalue { ptr, i32 } %33, 1
  store i32 %35, ptr %6, align 4
  call void @__cxa_free_exception(ptr %26) #12
  br label %36

36:                                               ; preds = %32, %28
  call void @_ZNSt7__cxx1112basic_stringIcSt11char_traitsIcESaIcEED1Ev(ptr noundef nonnull align 8 dereferenceable(32) %3) #12
  br label %68

37:                                               ; No predecessors!
  br label %38

38:                                               ; preds = %37, %8
  br label %39

39:                                               ; preds = %38
  %40 = getelementptr inbounds %"struct.faiss::Quantizer", ptr %7, i32 0, i32 1
  %41 = load i64, ptr %40, align 8
  %42 = getelementptr inbounds %"struct.faiss::ProductQuantizer", ptr %7, i32 0, i32 1
  %43 = load i64, ptr %42, align 8
  %44 = udiv i64 %41, %43
  %45 = getelementptr inbounds %"struct.faiss::ProductQuantizer", ptr %7, i32 0, i32 3
  store i64 %44, ptr %45, align 8
  %46 = getelementptr inbounds %"struct.faiss::ProductQuantizer", ptr %7, i32 0, i32 2
  %47 = load i64, ptr %46, align 8
  %48 = getelementptr inbounds %"struct.faiss::ProductQuantizer", ptr %7, i32 0, i32 1
  %49 = load i64, ptr %48, align 8
  %50 = mul i64 %47, %49
  %51 = add i64 %50, 7
  %52 = udiv i64 %51, 8
  %53 = getelementptr inbounds %"struct.faiss::Quantizer", ptr %7, i32 0, i32 2
  store i64 %52, ptr %53, align 8
  %54 = getelementptr inbounds %"struct.faiss::ProductQuantizer", ptr %7, i32 0, i32 2
  %55 = load i64, ptr %54, align 8
  %56 = trunc i64 %55 to i32
  %57 = shl i32 1, %56
  %58 = sext i32 %57 to i64
  %59 = getelementptr inbounds %"struct.faiss::ProductQuantizer", ptr %7, i32 0, i32 4
  store i64 %58, ptr %59, align 8
  %60 = getelementptr inbounds %"struct.faiss::ProductQuantizer", ptr %7, i32 0, i32 9
  %61 = getelementptr inbounds %"struct.faiss::Quantizer", ptr %7, i32 0, i32 1
  %62 = load i64, ptr %61, align 8
  %63 = getelementptr inbounds %"struct.faiss::ProductQuantizer", ptr %7, i32 0, i32 4
  %64 = load i64, ptr %63, align 8
  %65 = mul i64 %62, %64
  call void @_ZNSt6vectorIfSaIfEE6resizeEm(ptr noundef nonnull align 8 dereferenceable(24) %60, i64 noundef %65)
  %66 = getelementptr inbounds %"struct.faiss::ProductQuantizer", ptr %7, i32 0, i32 5
  store i8 0, ptr %66, align 8
  %67 = getelementptr inbounds %"struct.faiss::ProductQuantizer", ptr %7, i32 0, i32 6
  store i32 0, ptr %67, align 4
  ret void

68:                                               ; preds = %36
  %69 = load ptr, ptr %5, align 8
  %70 = load i32, ptr %6, align 4
  %71 = insertvalue { ptr, i32 } poison, ptr %69, 0
  %72 = insertvalue { ptr, i32 } %71, i32 %70, 1
  resume { ptr, i32 } %72

73:                                               ; preds = %27
  unreachable
}