; Function Attrs: mustprogress uwtable
define void @_ZN5faiss16ProductQuantizer18set_derived_valuesEv(ptr noundef nonnull align 8 dereferenceable(208) %0) local_unnamed_addr #0 align 2 personality ptr @__gxx_personality_v0 {
  %2 = alloca %"class.std::__cxx11::basic_string", align 8
  %3 = getelementptr inbounds i8, ptr %0, i64 8
  %4 = load i64, ptr %3, align 8
  %5 = getelementptr inbounds i8, ptr %0, i64 24
  %6 = load i64, ptr %5, align 8
  %7 = urem i64 %4, %6
  %8 = udiv i64 %4, %6
  %9 = icmp eq i64 %7, 0
  br i1 %9, label %26, label %10

10:                                               ; preds = %1
  call void @_ZNSt7__cxx1112basic_stringIcSt11char_traitsIcESaIcEEC1Ev(ptr noundef nonnull align 8 dereferenceable(32) %2) #16
  %11 = call i32 (ptr, i64, ptr, ...) @snprintf(ptr noundef null, i64 noundef 0, ptr noundef nonnull @.str, ptr noundef nonnull @.str.1) #16
  %12 = add nsw i32 %11, 1
  %13 = sext i32 %12 to i64
  invoke void @_ZNSt7__cxx1112basic_stringIcSt11char_traitsIcESaIcEE6resizeEm(ptr noundef nonnull align 8 dereferenceable(32) %2, i64 noundef %13)
          to label %14 unwind label %21

14:                                               ; preds = %10
  %15 = invoke noundef nonnull align 1 dereferenceable(1) ptr @_ZNSt7__cxx1112basic_stringIcSt11char_traitsIcESaIcEEixEm(ptr noundef nonnull align 8 dereferenceable(32) %2, i64 noundef 0)
          to label %16 unwind label %21

16:                                               ; preds = %14
  %17 = call noundef i64 @_ZNKSt7__cxx1112basic_stringIcSt11char_traitsIcESaIcEE4sizeEv(ptr noundef nonnull align 8 dereferenceable(32) %2) #16
  %18 = call i32 (ptr, i64, ptr, ...) @snprintf(ptr noundef nonnull %15, i64 noundef %17, ptr noundef nonnull @.str, ptr noundef nonnull @.str.1) #16
  %19 = call ptr @__cxa_allocate_exception(i64 40) #16
  invoke void @_ZN5faiss14FaissExceptionC1ERKNSt7__cxx1112basic_stringIcSt11char_traitsIcESaIcEEEPKcSA_i(ptr noundef nonnull align 8 dereferenceable(40) %19, ptr noundef nonnull align 8 dereferenceable(32) %2, ptr noundef nonnull @__PRETTY_FUNCTION__._ZN5faiss16ProductQuantizer18set_derived_valuesEv, ptr noundef nonnull @.str.2, i32 noundef 61)
          to label %20 unwind label %23

20:                                               ; preds = %16
  invoke void @__cxa_throw(ptr nonnull %19, ptr nonnull @_ZTIN5faiss14FaissExceptionE, ptr nonnull @_ZN5faiss14FaissExceptionD2Ev) #25
          to label %57 unwind label %21

21:                                               ; preds = %20, %14, %10
  %22 = landingpad { ptr, i32 }
          cleanup
  br label %25

23:                                               ; preds = %16
  %24 = landingpad { ptr, i32 }
          cleanup
  call void @__cxa_free_exception(ptr %19) #16
  br label %25

25:                                               ; preds = %23, %21
  %.pn = phi { ptr, i32 } [ %22, %21 ], [ %24, %23 ]
  call void @_ZNSt7__cxx1112basic_stringIcSt11char_traitsIcESaIcEED1Ev(ptr noundef nonnull align 8 dereferenceable(32) %2) #16
  resume { ptr, i32 } %.pn

26:                                               ; preds = %1
  %27 = getelementptr inbounds i8, ptr %0, i64 40
  store i64 %8, ptr %27, align 8
  %28 = getelementptr inbounds i8, ptr %0, i64 32
  %29 = load i64, ptr %28, align 8
  %30 = mul i64 %29, %6
  %31 = add i64 %30, 7
  %32 = lshr i64 %31, 3
  %33 = getelementptr inbounds i8, ptr %0, i64 16
  store i64 %32, ptr %33, align 8
  %34 = trunc i64 %29 to i32
  %35 = shl nuw i32 1, %34
  %36 = sext i32 %35 to i64
  %37 = getelementptr inbounds i8, ptr %0, i64 48
  store i64 %36, ptr %37, align 8
  %38 = getelementptr inbounds i8, ptr %0, i64 112
  %39 = mul i64 %4, %36
  %40 = getelementptr inbounds i8, ptr %0, i64 120
  %41 = load ptr, ptr %40, align 8
  %42 = load ptr, ptr %38, align 8
  %43 = ptrtoint ptr %41 to i64
  %44 = ptrtoint ptr %42 to i64
  %45 = sub i64 %43, %44
  %46 = ashr exact i64 %45, 2
  %47 = icmp ult i64 %46, %39
  br i1 %47, label %48, label %50

48:                                               ; preds = %26
  %49 = sub i64 %39, %46
  tail call void @_ZNSt6vectorIfSaIfEE17_M_default_appendEm(ptr noundef nonnull align 8 dereferenceable(24) %38, i64 noundef %49)
  br label %_ZNSt6vectorIfSaIfEE6resizeEm.exit

50:                                               ; preds = %26
  %51 = icmp ugt i64 %46, %39
  br i1 %51, label %52, label %_ZNSt6vectorIfSaIfEE6resizeEm.exit

52:                                               ; preds = %50
  %53 = getelementptr inbounds float, ptr %42, i64 %39
  %.not.i.i = icmp eq ptr %41, %53
  br i1 %.not.i.i, label %_ZNSt6vectorIfSaIfEE6resizeEm.exit, label %54

54:                                               ; preds = %52
  store ptr %53, ptr %40, align 8
  br label %_ZNSt6vectorIfSaIfEE6resizeEm.exit

_ZNSt6vectorIfSaIfEE6resizeEm.exit:               ; preds = %48, %50, %52, %54
  %55 = getelementptr inbounds i8, ptr %0, i64 56
  store i8 0, ptr %55, align 8
  %56 = getelementptr inbounds i8, ptr %0, i64 60
  store i32 0, ptr %56, align 4
  ret void

57:                                               ; preds = %20
  unreachable
}